target datalayout = "e-m:e-p270:32:32-p271:32:32-p272:64:64-i64:64-i128:128-f80:128-n8:16:32:64-S128"
target triple = "x86_64-pc-linux-gnu"

%struct.slurm_conf_t = type { i64, ptr, i16, ptr, ptr, ptr, ptr, ptr, i16, ptr, ptr, ptr, ptr, ptr, ptr, ptr, i16, ptr, ptr, ptr, ptr, i16, ptr, ptr, ptr, i64, ptr, ptr, ptr, ptr, i16, ptr, ptr, i16, i32, ptr, i32, ptr, i32, i32, ptr, ptr, i64, i64, ptr, i16, i16, ptr, i32, i32, ptr, i32, ptr, i32, i16, i16, i16, ptr, i16, i16, ptr, ptr, i32, i16, i16, ptr, i32, i16, ptr, ptr, ptr, ptr, i16, ptr, ptr, ptr, ptr, i32, ptr, ptr, ptr, ptr, i16, i16, ptr, i32, i32, i32, i16, i16, ptr, ptr, i16, ptr, ptr, i32, i32, i32, i32, i32, i64, i32, i32, i16, ptr, ptr, i32, ptr, ptr, ptr, i16, i32, ptr, ptr, i16, ptr, ptr, i32, i16, ptr, ptr, ptr, ptr, i32, i32, i16, i16, i32, ptr, i16, ptr, i32, i32, i32, i32, i32, i32, ptr, i16, ptr, ptr, i32, i16, ptr, i32, i16, i16, ptr, ptr, ptr, i16, ptr, ptr, ptr, ptr, i16, i16, ptr, i16, ptr, i16, ptr, i16, ptr, i16, ptr, ptr, ptr, ptr, i16, ptr, ptr, ptr, i32, ptr, i32, ptr, ptr, i16, ptr, ptr, i32, i16, ptr, ptr, i16, i16, ptr, i16, ptr, ptr, ptr, i32, ptr, i16, i16, ptr, ptr, ptr, ptr, ptr, ptr, ptr, ptr, i16, i32, i16, ptr, ptr, ptr, ptr, i32, ptr, ptr, ptr, i16, ptr, ptr, ptr, i16, ptr, i16, ptr, i16, i16, ptr }
%struct.persist_msg_t = type { ptr, ptr, i16 }
%struct.buf_t = type { i32, ptr, i32, i32, i8, i8 }

@agent_list = internal global ptr null, align 8
@slurm_conf = external global %struct.slurm_conf_t, align 8
@plugin_type = external constant [0 x i8], align 1
@.str.50 = private unnamed_addr constant [16 x i8] c"%s/dbd.messages\00", align 1
@.str.57 = private unnamed_addr constant [55 x i8] c"%s: %s: There is no state save file to open by name %s\00", align 1
@__func__._load_dbd_state = private unnamed_addr constant [16 x i8] c"_load_dbd_state\00", align 1
@.str.58 = private unnamed_addr constant [31 x i8] c"Opening state save file %s: %m\00", align 1
@.str.59 = private unnamed_addr constant [49 x i8] c"%s: %s: Version string in dbd_state header is %s\00", align 1
@.str.60 = private unnamed_addr constant [16 x i8] c"no buffer given\00", align 1
@.str.61 = private unnamed_addr constant [34 x i8] c"%s: %s: recovered %d pending RPCs\00", align 1

; Function Attrs: nounwind uwtable
define internal void @_load_dbd_state() #0 {
  %1 = alloca ptr, align 8
  %2 = alloca ptr, align 8
  %3 = alloca i32, align 4
  %4 = alloca i32, align 4
  %5 = alloca i16, align 2
  %6 = alloca ptr, align 8
  %7 = alloca i32, align 4
  %8 = alloca i32, align 4
  %9 = alloca %struct.persist_msg_t, align 8
  %10 = alloca i32, align 4
  call void @llvm.lifetime.start.p0(i64 8, ptr %1) #9
  store ptr null, ptr %1, align 8
  call void @llvm.lifetime.start.p0(i64 8, ptr %2) #9
  call void @llvm.lifetime.start.p0(i64 4, ptr %3) #9
  call void @llvm.lifetime.start.p0(i64 4, ptr %4) #9
  store i32 0, ptr %4, align 4
  call void @llvm.lifetime.start.p0(i64 2, ptr %5) #9
  store i16 0, ptr %5, align 2
  %11 = load ptr, ptr getelementptr inbounds nuw (%struct.slurm_conf_t, ptr @slurm_conf, i32 0, i32 199), align 8
  call void (ptr, ptr, ...) @slurm_xstrfmtcat(ptr noundef %1, ptr noundef @.str.50, ptr noundef %11)
  %12 = load ptr, ptr %1, align 8
  %13 = call i32 (ptr, i32, ...) @open(ptr noundef %12, i32 noundef 0)
  store i32 %13, ptr %3, align 4
  %14 = load i32, ptr %3, align 4
  %15 = icmp slt i32 %14, 0
  br i1 %15, label %16, label %36

16:                                               ; preds = %0
  %17 = call ptr @__errno_location() #10
  %18 = load i32, ptr %17, align 4
  %19 = icmp eq i32 %18, 2
  br i1 %19, label %20, label %32

20:                                               ; preds = %16
  br label %21

21:                                               ; preds = %20
  br label %22

22:                                               ; preds = %21
  %23 = call i32 @slurm_get_log_level()
  %24 = icmp sge i32 %23, 8
  br i1 %24, label %25, label %27

25:                                               ; preds = %22
  %26 = load ptr, ptr %1, align 8
  call void (i32, ptr, ...) @slurm_log_var(i32 noundef 8, ptr noundef @.str.57, ptr noundef @plugin_type, ptr noundef @__func__._load_dbd_state, ptr noundef %26)
  br label %27

27:                                               ; preds = %25, %22
  br label %28

28:                                               ; preds = %27
  br label %29

29:                                               ; preds = %28
  br label %30

30:                                               ; preds = %29
  br label %31

31:                                               ; preds = %30
  br label %35

32:                                               ; preds = %16
  %33 = load ptr, ptr %1, align 8
  %34 = call i32 (ptr, ...) @slurm_error(ptr noundef @.str.58, ptr noundef %33)
  br label %35

35:                                               ; preds = %32, %31
  br label %144

36:                                               ; preds = %0
  call void @llvm.lifetime.start.p0(i64 8, ptr %6) #9
  store ptr null, ptr %6, align 8
  %37 = load i32, ptr %3, align 4
  %38 = call ptr @_load_dbd_rec(i32 noundef %37)
  store ptr %38, ptr %2, align 8
  %39 = load ptr, ptr %2, align 8
  %40 = icmp eq ptr %39, null
  br i1 %40, label %41, label %42

41:                                               ; preds = %36
  br label %130

42:                                               ; preds = %36
  %43 = load ptr, ptr %2, align 8
  %44 = getelementptr inbounds nuw %struct.buf_t, ptr %43, i32 0, i32 3
  store i32 0, ptr %44, align 4
  br label %45

45:                                               ; preds = %42
  call void @llvm.lifetime.start.p0(i64 4, ptr %7) #9
  %46 = load ptr, ptr %2, align 8
  %47 = call i32 @slurm_unpackstr_xmalloc_chooser(ptr noundef %6, ptr noundef %7, ptr noundef %46)
  %48 = icmp ne i32 %47, 0
  br i1 %48, label %49, label %50

49:                                               ; preds = %45
  store i32 9, ptr %8, align 4
  br label %51

50:                                               ; preds = %45
  store i32 0, ptr %8, align 4
  br label %51

51:                                               ; preds = %49, %50
  call void @llvm.lifetime.end.p0(i64 4, ptr %7) #9
  %52 = load i32, ptr %8, align 4
  switch i32 %52, label %145 [
    i32 0, label %53
    i32 9, label %67
  ]

53:                                               ; preds = %51
  br label %54

54:                                               ; preds = %53
  br label %55

55:                                               ; preds = %54
  br label %56

56:                                               ; preds = %55
  br label %57

57:                                               ; preds = %56
  %58 = call i32 @slurm_get_log_level()
  %59 = icmp sge i32 %58, 7
  br i1 %59, label %60, label %62

60:                                               ; preds = %57
  %61 = load ptr, ptr %6, align 8
  call void (i32, ptr, ...) @slurm_log_var(i32 noundef 7, ptr noundef @.str.59, ptr noundef @plugin_type, ptr noundef @__func__._load_dbd_state, ptr noundef %61)
  br label %62

62:                                               ; preds = %60, %57
  br label %63

63:                                               ; preds = %62
  br label %64

64:                                               ; preds = %63
  br label %65

65:                                               ; preds = %64
  br label %66

66:                                               ; preds = %65
  br label %67

67:                                               ; preds = %66, %51
  br label %68

68:                                               ; preds = %67
  %69 = load ptr, ptr %2, align 8
  %70 = icmp ne ptr %69, null
  br i1 %70, label %71, label %73

71:                                               ; preds = %68
  %72 = load ptr, ptr %2, align 8
  call void @slurm_free_buf(ptr noundef %72)
  br label %73

73:                                               ; preds = %71, %68
  store ptr null, ptr %2, align 8
  br label %74

74:                                               ; preds = %73
  br label %75

75:                                               ; preds = %74
  store ptr null, ptr %2, align 8
  %76 = load ptr, ptr %6, align 8
  %77 = icmp ne ptr %76, null
  br i1 %77, label %78, label %83

78:                                               ; preds = %75
  %79 = load ptr, ptr %6, align 8
  %80 = getelementptr inbounds i8, ptr %79, i64 3
  %81 = call i64 @strtoul(ptr noundef %80, ptr noundef null, i32 noundef 10) #9
  %82 = trunc i64 %81 to i16
  store i16 %82, ptr %5, align 2
  call void @slurm_xfree(ptr noundef %6)
  br label %83

83:                                               ; preds = %78, %75
  br label %84

84:                                               ; preds = %124, %122, %83
  br label %85

85:                                               ; preds = %84
  %86 = load ptr, ptr %2, align 8
  %87 = icmp ne ptr %86, null
  br i1 %87, label %91, label %88

88:                                               ; preds = %85
  %89 = load i32, ptr %3, align 4
  %90 = call ptr @_load_dbd_rec(i32 noundef %89)
  store ptr %90, ptr %2, align 8
  br label %91

91:                                               ; preds = %88, %85
  %92 = load ptr, ptr %2, align 8
  %93 = icmp eq ptr %92, null
  br i1 %93, label %94, label %95

94:                                               ; preds = %91
  br label %129

95:                                               ; preds = %91
  %96 = load i16, ptr %5, align 2
  %97 = zext i16 %96 to i32
  %98 = icmp ne i32 %97, 11008
  br i1 %98, label %99, label %119

99:                                               ; preds = %95
  call void @llvm.lifetime.start.p0(i64 24, ptr %9) #9
  call void @llvm.memset.p0.i64(ptr align 8 %9, i8 0, i64 24, i1 false)
  call void @llvm.lifetime.start.p0(i64 4, ptr %10) #9
  %100 = load ptr, ptr %2, align 8
  %101 = getelementptr inbounds nuw %struct.buf_t, ptr %100, i32 0, i32 3
  store i32 0, ptr %101, align 4
  %102 = load i16, ptr %5, align 2
  %103 = load ptr, ptr %2, align 8
  %104 = call i32 @slurm_unpack_slurmdbd_msg(ptr noundef %9, i16 noundef zeroext %102, ptr noundef %103)
  store i32 %104, ptr %10, align 4
  br label %105

105:                                              ; preds = %99
  %106 = load ptr, ptr %2, align 8
  %107 = icmp ne ptr %106, null
  br i1 %107, label %108, label %110

108:                                              ; preds = %105
  %109 = load ptr, ptr %2, align 8
  call void @slurm_free_buf(ptr noundef %109)
  br label %110

110:                                              ; preds = %108, %105
  store ptr null, ptr %2, align 8
  br label %111

111:                                              ; preds = %110
  br label %112

112:                                              ; preds = %111
  %113 = load i32, ptr %10, align 4
  %114 = icmp eq i32 %113, 0
  br i1 %114, label %115, label %117

115:                                              ; preds = %112
  %116 = call ptr @slurm_pack_slurmdbd_msg(ptr noundef %9, i16 noundef zeroext 11008)
  store ptr %116, ptr %2, align 8
  br label %118

117:                                              ; preds = %112
  store ptr null, ptr %2, align 8
  br label %118

118:                                              ; preds = %117, %115
  call void @llvm.lifetime.end.p0(i64 4, ptr %10) #9
  call void @llvm.lifetime.end.p0(i64 24, ptr %9) #9
  br label %119

119:                                              ; preds = %118, %95
  %120 = load ptr, ptr %2, align 8
  %121 = icmp ne ptr %120, null
  br i1 %121, label %124, label %122

122:                                              ; preds = %119
  %123 = call i32 (ptr, ...) @slurm_error(ptr noundef @.str.60)
  br label %84, !llvm.loop !8

124:                                              ; preds = %119
  %125 = load ptr, ptr @agent_list, align 8
  %126 = load ptr, ptr %2, align 8
  call void @slurm_list_enqueue(ptr noundef %125, ptr noundef %126)
  %127 = load i32, ptr %4, align 4
  %128 = add nsw i32 %127, 1
  store i32 %128, ptr %4, align 4
  store ptr null, ptr %2, align 8
  br label %84, !llvm.loop !8

129:                                              ; preds = %94
  br label %130

130:                                              ; preds = %129, %41
  br label %131

131:                                              ; preds = %130
  br label %132

132:                                              ; preds = %131
  %133 = call i32 @slurm_get_log_level()
  %134 = icmp sge i32 %133, 4
  br i1 %134, label %135, label %137

135:                                              ; preds = %132
  %136 = load i32, ptr %4, align 4
  call void (i32, ptr, ...) @slurm_log_var(i32 noundef 4, ptr noundef @.str.61, ptr noundef @plugin_type, ptr noundef @__func__._load_dbd_state, i32 noundef %136)
  br label %137

137:                                              ; preds = %135, %132
  br label %138

138:                                              ; preds = %137
  br label %139

139:                                              ; preds = %138
  br label %140

140:                                              ; preds = %139
  br label %141

141:                                              ; preds = %140
  %142 = load i32, ptr %3, align 4
  %143 = call i32 @close(i32 noundef %142)
  call void @llvm.lifetime.end.p0(i64 8, ptr %6) #9
  br label %144

144:                                              ; preds = %141, %35
  call void @slurm_xfree(ptr noundef %1)
  call void @llvm.lifetime.end.p0(i64 2, ptr %5) #9
  call void @llvm.lifetime.end.p0(i64 4, ptr %4) #9
  call void @llvm.lifetime.end.p0(i64 4, ptr %3) #9
  call void @llvm.lifetime.end.p0(i64 8, ptr %2) #9
  call void @llvm.lifetime.end.p0(i64 8, ptr %1) #9
  ret void

145:                                              ; preds = %51
  unreachable
}