; Function Attrs: nounwind uwtable
define internal fastcc void @_load_dbd_state() unnamed_addr #0 {
  %1 = alloca ptr, align 8
  %2 = alloca ptr, align 8
  %3 = alloca i32, align 4
  %4 = alloca %struct.persist_msg_t, align 8
  call void @llvm.lifetime.start.p0(i64 8, ptr nonnull %1) #13
  store ptr null, ptr %1, align 8
  %5 = load ptr, ptr getelementptr inbounds nuw (i8, ptr @slurm_conf, i64 1336), align 8
  call void (ptr, ptr, ...) @slurm_xstrfmtcat(ptr noundef nonnull %1, ptr noundef nonnull @.str.50, ptr noundef %5) #13
  %6 = load ptr, ptr %1, align 8
  %7 = call i32 (ptr, i32, ...) @open(ptr noundef %6, i32 noundef 0) #13
  %8 = icmp slt i32 %7, 0
  br i1 %8, label %9, label %21

9:                                                ; preds = %0
  %10 = tail call ptr @__errno_location() #14
  %11 = load i32, ptr %10, align 4
  %12 = icmp eq i32 %11, 2
  br i1 %12, label %13, label %18

13:                                               ; preds = %9
  %14 = call i32 @slurm_get_log_level() #13
  %15 = icmp sgt i32 %14, 7
  br i1 %15, label %16, label %69

16:                                               ; preds = %13
  %17 = load ptr, ptr %1, align 8
  call void (i32, ptr, ...) @slurm_log_var(i32 noundef 8, ptr noundef nonnull @.str.57, ptr noundef nonnull @plugin_type, ptr noundef nonnull @__func__._load_dbd_state, ptr noundef %17) #13
  br label %69

18:                                               ; preds = %9
  %19 = load ptr, ptr %1, align 8
  %20 = call i32 (ptr, ...) @slurm_error(ptr noundef nonnull @.str.58, ptr noundef %19) #13
  br label %69

21:                                               ; preds = %0
  call void @llvm.lifetime.start.p0(i64 8, ptr nonnull %2) #13
  store ptr null, ptr %2, align 8
  %22 = call fastcc ptr @_load_dbd_rec(i32 noundef %7)
  %23 = icmp eq ptr %22, null
  br i1 %23, label %.loopexit, label %24

24:                                               ; preds = %21
  %25 = getelementptr inbounds nuw i8, ptr %22, i64 20
  store i32 0, ptr %25, align 4
  call void @llvm.lifetime.start.p0(i64 4, ptr nonnull %3) #13
  %26 = call i32 @slurm_unpackstr_xmalloc_chooser(ptr noundef nonnull %2, ptr noundef nonnull %3, ptr noundef nonnull %22) #13
  %.not = icmp eq i32 %26, 0
  call void @llvm.lifetime.end.p0(i64 4, ptr nonnull %3) #13
  br i1 %.not, label %27, label %32

27:                                               ; preds = %24
  %28 = call i32 @slurm_get_log_level() #13
  %29 = icmp sgt i32 %28, 6
  br i1 %29, label %30, label %32

30:                                               ; preds = %27
  %31 = load ptr, ptr %2, align 8
  call void (i32, ptr, ...) @slurm_log_var(i32 noundef 7, ptr noundef nonnull @.str.59, ptr noundef nonnull @plugin_type, ptr noundef nonnull @__func__._load_dbd_state, ptr noundef %31) #13
  br label %32

32:                                               ; preds = %24, %27, %30
  call void @slurm_free_buf(ptr noundef nonnull %22) #13
  %33 = load ptr, ptr %2, align 8
  %.not29 = icmp eq ptr %33, null
  br i1 %.not29, label %.thread, label %34

34:                                               ; preds = %32
  %35 = getelementptr inbounds nuw i8, ptr %33, i64 3
  %36 = call i64 @strtoul(ptr noundef nonnull captures(none) %35, ptr noundef null, i32 noundef 10) #13
  call void @slurm_xfree(ptr noundef nonnull %2) #13
  %37 = call fastcc ptr @_load_dbd_rec(i32 noundef %7)
  %38 = icmp eq ptr %37, null
  br i1 %38, label %.loopexit, label %.lr.ph.lr.ph

.thread:                                          ; preds = %32
  %39 = call fastcc ptr @_load_dbd_rec(i32 noundef %7)
  %40 = icmp eq ptr %39, null
  br i1 %40, label %.loopexit, label %.lr.ph.preheader

.lr.ph.lr.ph:                                     ; preds = %34
  %41 = trunc i64 %36 to i16
  %.not30 = icmp eq i16 %41, 11008
  br i1 %.not30, label %.lr.ph.us, label %.lr.ph.preheader

.lr.ph.preheader:                                 ; preds = %.thread, %.lr.ph.lr.ph
  %.0234851 = phi i16 [ %41, %.lr.ph.lr.ph ], [ 0, %.thread ]
  %42 = phi ptr [ %37, %.lr.ph.lr.ph ], [ %39, %.thread ]
  br label %.lr.ph

.lr.ph.us:                                        ; preds = %.lr.ph.lr.ph, %.lr.ph.us
  %43 = phi ptr [ %46, %.lr.ph.us ], [ %37, %.lr.ph.lr.ph ]
  %.024.ph39.us = phi i32 [ %45, %.lr.ph.us ], [ 0, %.lr.ph.lr.ph ]
  %44 = load ptr, ptr @agent_list, align 8
  call void @slurm_list_enqueue(ptr noundef %44, ptr noundef nonnull %43) #13
  %45 = add nuw nsw i32 %.024.ph39.us, 1
  %46 = call fastcc ptr @_load_dbd_rec(i32 noundef %7)
  %47 = icmp eq ptr %46, null
  br i1 %47, label %.loopexit, label %.lr.ph.us, !llvm.loop !8

.lr.ph:                                           ; preds = %.lr.ph.preheader, %.thread.split
  %48 = phi ptr [ %62, %.thread.split ], [ %42, %.lr.ph.preheader ]
  %.024.ph39 = phi i32 [ %61, %.thread.split ], [ 0, %.lr.ph.preheader ]
  br label %49

49:                                               ; preds = %.lr.ph, %56
  %50 = phi ptr [ %48, %.lr.ph ], [ %58, %56 ]
  call void @llvm.lifetime.start.p0(i64 24, ptr nonnull %4) #13
  call void @llvm.memset.p0.i64(ptr noundef nonnull align 8 dereferenceable(24) %4, i8 0, i64 24, i1 false)
  %51 = getelementptr inbounds nuw i8, ptr %50, i64 20
  store i32 0, ptr %51, align 4
  %52 = call i32 @slurm_unpack_slurmdbd_msg(ptr noundef nonnull %4, i16 noundef zeroext %.0234851, ptr noundef nonnull %50) #13
  call void @slurm_free_buf(ptr noundef nonnull %50) #13
  %53 = icmp eq i32 %52, 0
  br i1 %53, label %54, label %.thread35

.thread35:                                        ; preds = %49
  call void @llvm.lifetime.end.p0(i64 24, ptr nonnull %4) #13
  br label %56

54:                                               ; preds = %49
  %55 = call ptr @slurm_pack_slurmdbd_msg(ptr noundef nonnull %4, i16 noundef zeroext 11008) #13
  call void @llvm.lifetime.end.p0(i64 24, ptr nonnull %4) #13
  %.not31 = icmp eq ptr %55, null
  br i1 %.not31, label %56, label %.thread.split

56:                                               ; preds = %.thread35, %54
  %57 = call i32 (ptr, ...) @slurm_error(ptr noundef nonnull @.str.60) #13
  %58 = call fastcc ptr @_load_dbd_rec(i32 noundef %7)
  %59 = icmp eq ptr %58, null
  br i1 %59, label %.loopexit, label %49, !llvm.loop !8

.thread.split:                                    ; preds = %54
  %60 = load ptr, ptr @agent_list, align 8
  call void @slurm_list_enqueue(ptr noundef %60, ptr noundef nonnull %55) #13
  %61 = add nuw nsw i32 %.024.ph39, 1
  %62 = call fastcc ptr @_load_dbd_rec(i32 noundef %7)
  %63 = icmp eq ptr %62, null
  br i1 %63, label %.loopexit, label %.lr.ph, !llvm.loop !8

.loopexit:                                        ; preds = %.lr.ph.us, %.thread.split, %56, %.thread, %34, %21
  %.125 = phi i32 [ 0, %21 ], [ 0, %34 ], [ 0, %.thread ], [ %.024.ph39, %56 ], [ %61, %.thread.split ], [ %45, %.lr.ph.us ]
  %64 = call i32 @slurm_get_log_level() #13
  %65 = icmp sgt i32 %64, 3
  br i1 %65, label %66, label %67

66:                                               ; preds = %.loopexit
  call void (i32, ptr, ...) @slurm_log_var(i32 noundef 4, ptr noundef nonnull @.str.61, ptr noundef nonnull @plugin_type, ptr noundef nonnull @__func__._load_dbd_state, i32 noundef %.125) #13
  br label %67

67:                                               ; preds = %66, %.loopexit
  %68 = call i32 @close(i32 noundef %7) #13
  call void @llvm.lifetime.end.p0(i64 8, ptr nonnull %2) #13
  br label %69

69:                                               ; preds = %18, %16, %13, %67
  call void @slurm_xfree(ptr noundef nonnull %1) #13
  call void @llvm.lifetime.end.p0(i64 8, ptr nonnull %1) #13
  ret void
}